target datalayout = "e-m:e-p270:32:32-p271:32:32-p272:64:64-i64:64-i128:128-f80:128-n8:16:32:64-S128"
target triple = "x86_64-pc-linux-gnu"

%struct.prov_aes_wrap_ctx_st = type { %struct.prov_cipher_ctx_st, %union.anon.0, ptr }
%struct.prov_cipher_ctx_st = type { [16 x i8], [16 x i8], [16 x i8], ptr, %union.anon, i32, i64, i64, i64, i64, i32, i8, i32, ptr, i32, i64, i32, i64, i32, ptr, ptr, ptr }
%union.anon = type { ptr }
%union.anon.0 = type { double, [240 x i8] }

@.str = private unnamed_addr constant [62 x i8] c"../openssl/providers/implementations/ciphers/cipher_aes_wrp.c\00", align 1
@__func__.aes_wrap_cipher = private unnamed_addr constant [16 x i8] c"aes_wrap_cipher\00", align 1
@__func__.aes_wrap_cipher_internal = private unnamed_addr constant [25 x i8] c"aes_wrap_cipher_internal\00", align 1

; Function Attrs: nounwind uwtable
define internal i32 @aes_wrap_cipher_internal(ptr noundef %0, ptr noundef %1, ptr noundef %2, i64 noundef %3) #0 {
  %5 = alloca i32, align 4
  %6 = alloca ptr, align 8
  %7 = alloca ptr, align 8
  %8 = alloca ptr, align 8
  %9 = alloca i64, align 8
  %10 = alloca ptr, align 8
  %11 = alloca ptr, align 8
  %12 = alloca i64, align 8
  %13 = alloca i32, align 4
  %14 = alloca i32, align 4
  store ptr %0, ptr %6, align 8, !tbaa !3
  store ptr %1, ptr %7, align 8, !tbaa !7
  store ptr %2, ptr %8, align 8, !tbaa !7
  store i64 %3, ptr %9, align 8, !tbaa !9
  call void @llvm.lifetime.start.p0(i64 8, ptr %10) #4
  %15 = load ptr, ptr %6, align 8, !tbaa !3
  store ptr %15, ptr %10, align 8, !tbaa !25
  call void @llvm.lifetime.start.p0(i64 8, ptr %11) #4
  %16 = load ptr, ptr %6, align 8, !tbaa !3
  store ptr %16, ptr %11, align 8, !tbaa !15
  call void @llvm.lifetime.start.p0(i64 8, ptr %12) #4
  call void @llvm.lifetime.start.p0(i64 4, ptr %13) #4
  %17 = load ptr, ptr %10, align 8, !tbaa !25
  %18 = getelementptr inbounds nuw %struct.prov_cipher_ctx_st, ptr %17, i32 0, i32 11
  %19 = load i8, ptr %18, align 4
  %20 = and i8 %19, 1
  %21 = zext i8 %20 to i32
  store i32 %21, ptr %13, align 4, !tbaa !28
  %22 = load ptr, ptr %8, align 8, !tbaa !7
  %23 = icmp eq ptr %22, null
  br i1 %23, label %24, label %25

24:                                               ; preds = %4
  store i32 0, ptr %5, align 4
  store i32 1, ptr %14, align 4
  br label %117

25:                                               ; preds = %4
  %26 = load i64, ptr %9, align 8, !tbaa !9
  %27 = icmp eq i64 %26, 0
  br i1 %27, label %28, label %29

28:                                               ; preds = %25
  call void @ERR_new()
  call void @ERR_set_debug(ptr noundef @.str, i32 noundef 179, ptr noundef @__func__.aes_wrap_cipher_internal)
  call void (i32, i32, ptr, ...) @ERR_set_error(i32 noundef 57, i32 noundef 230, ptr noundef null)
  store i32 -1, ptr %5, align 4
  store i32 1, ptr %14, align 4
  br label %117

29:                                               ; preds = %25
  %30 = load ptr, ptr %10, align 8, !tbaa !25
  %31 = getelementptr inbounds nuw %struct.prov_cipher_ctx_st, ptr %30, i32 0, i32 11
  %32 = load i8, ptr %31, align 4
  %33 = lshr i8 %32, 1
  %34 = and i8 %33, 1
  %35 = zext i8 %34 to i32
  %36 = icmp ne i32 %35, 0
  br i1 %36, label %45, label %37

37:                                               ; preds = %29
  %38 = load i64, ptr %9, align 8, !tbaa !9
  %39 = icmp ult i64 %38, 16
  br i1 %39, label %44, label %40

40:                                               ; preds = %37
  %41 = load i64, ptr %9, align 8, !tbaa !9
  %42 = and i64 %41, 7
  %43 = icmp ne i64 %42, 0
  br i1 %43, label %44, label %45

44:                                               ; preds = %40, %37
  call void @ERR_new()
  call void @ERR_set_debug(ptr noundef @.str, i32 noundef 185, ptr noundef @__func__.aes_wrap_cipher_internal)
  call void (i32, i32, ptr, ...) @ERR_set_error(i32 noundef 57, i32 noundef 230, ptr noundef null)
  store i32 -1, ptr %5, align 4
  store i32 1, ptr %14, align 4
  br label %117

45:                                               ; preds = %40, %29
  %46 = load i32, ptr %13, align 4, !tbaa !28
  %47 = icmp ne i32 %46, 0
  br i1 %47, label %53, label %48

48:                                               ; preds = %45
  %49 = load i64, ptr %9, align 8, !tbaa !9
  %50 = and i64 %49, 7
  %51 = icmp ne i64 %50, 0
  br i1 %51, label %52, label %53

52:                                               ; preds = %48
  call void @ERR_new()
  call void @ERR_set_debug(ptr noundef @.str, i32 noundef 191, ptr noundef @__func__.aes_wrap_cipher_internal)
  call void (i32, i32, ptr, ...) @ERR_set_error(i32 noundef 57, i32 noundef 230, ptr noundef null)
  store i32 -1, ptr %5, align 4
  store i32 1, ptr %14, align 4
  br label %117

53:                                               ; preds = %48, %45
  %54 = load ptr, ptr %7, align 8, !tbaa !7
  %55 = icmp eq ptr %54, null
  br i1 %55, label %56, label %80

56:                                               ; preds = %53
  %57 = load ptr, ptr %10, align 8, !tbaa !25
  %58 = getelementptr inbounds nuw %struct.prov_cipher_ctx_st, ptr %57, i32 0, i32 11
  %59 = load i8, ptr %58, align 4
  %60 = lshr i8 %59, 1
  %61 = and i8 %60, 1
  %62 = zext i8 %61 to i32
  %63 = icmp ne i32 %62, 0
  br i1 %63, label %64, label %76

64:                                               ; preds = %56
  %65 = load i32, ptr %13, align 4, !tbaa !28
  %66 = icmp ne i32 %65, 0
  br i1 %66, label %67, label %72

67:                                               ; preds = %64
  %68 = load i64, ptr %9, align 8, !tbaa !9
  %69 = add i64 %68, 7
  %70 = udiv i64 %69, 8
  %71 = mul i64 %70, 8
  store i64 %71, ptr %9, align 8, !tbaa !9
  br label %72

72:                                               ; preds = %67, %64
  %73 = load i64, ptr %9, align 8, !tbaa !9
  %74 = add i64 %73, 8
  %75 = trunc i64 %74 to i32
  store i32 %75, ptr %5, align 4
  store i32 1, ptr %14, align 4
  br label %117

76:                                               ; preds = %56
  %77 = load i64, ptr %9, align 8, !tbaa !9
  %78 = sub i64 %77, 8
  %79 = trunc i64 %78 to i32
  store i32 %79, ptr %5, align 4
  store i32 1, ptr %14, align 4
  br label %117

80:                                               ; preds = %53
  %81 = load ptr, ptr %11, align 8, !tbaa !15
  %82 = getelementptr inbounds nuw %struct.prov_aes_wrap_ctx_st, ptr %81, i32 0, i32 2
  %83 = load ptr, ptr %82, align 8, !tbaa !30
  %84 = load ptr, ptr %11, align 8, !tbaa !15
  %85 = getelementptr inbounds nuw %struct.prov_aes_wrap_ctx_st, ptr %84, i32 0, i32 1
  %86 = load ptr, ptr %10, align 8, !tbaa !25
  %87 = getelementptr inbounds nuw %struct.prov_cipher_ctx_st, ptr %86, i32 0, i32 11
  %88 = load i8, ptr %87, align 4
  %89 = lshr i8 %88, 2
  %90 = and i8 %89, 1
  %91 = zext i8 %90 to i32
  %92 = icmp ne i32 %91, 0
  br i1 %92, label %93, label %97

93:                                               ; preds = %80
  %94 = load ptr, ptr %10, align 8, !tbaa !25
  %95 = getelementptr inbounds nuw %struct.prov_cipher_ctx_st, ptr %94, i32 0, i32 2
  %96 = getelementptr inbounds [16 x i8], ptr %95, i64 0, i64 0
  br label %98

97:                                               ; preds = %80
  br label %98

98:                                               ; preds = %97, %93
  %99 = phi ptr [ %96, %93 ], [ null, %97 ]
  %100 = load ptr, ptr %7, align 8, !tbaa !7
  %101 = load ptr, ptr %8, align 8, !tbaa !7
  %102 = load i64, ptr %9, align 8, !tbaa !9
  %103 = load ptr, ptr %10, align 8, !tbaa !25
  %104 = getelementptr inbounds nuw %struct.prov_cipher_ctx_st, ptr %103, i32 0, i32 3
  %105 = load ptr, ptr %104, align 8, !tbaa !31
  %106 = call i64 %83(ptr noundef %85, ptr noundef %99, ptr noundef %100, ptr noundef %101, i64 noundef %102, ptr noundef %105)
  store i64 %106, ptr %12, align 8, !tbaa !9
  %107 = load i64, ptr %12, align 8, !tbaa !9
  %108 = icmp ne i64 %107, 0
  br i1 %108, label %110, label %109

109:                                              ; preds = %98
  call void @ERR_new()
  call void @ERR_set_debug(ptr noundef @.str, i32 noundef 215, ptr noundef @__func__.aes_wrap_cipher_internal)
  call void (i32, i32, ptr, ...) @ERR_set_error(i32 noundef 57, i32 noundef 102, ptr noundef null)
  store i32 -1, ptr %5, align 4
  store i32 1, ptr %14, align 4
  br label %117

110:                                              ; preds = %98
  %111 = load i64, ptr %12, align 8, !tbaa !9
  %112 = icmp ugt i64 %111, 2147483647
  br i1 %112, label %113, label %114

113:                                              ; preds = %110
  call void @ERR_new()
  call void @ERR_set_debug(ptr noundef @.str, i32 noundef 219, ptr noundef @__func__.aes_wrap_cipher_internal)
  call void (i32, i32, ptr, ...) @ERR_set_error(i32 noundef 57, i32 noundef 217, ptr noundef null)
  store i32 -1, ptr %5, align 4
  store i32 1, ptr %14, align 4
  br label %117

114:                                              ; preds = %110
  %115 = load i64, ptr %12, align 8, !tbaa !9
  %116 = trunc i64 %115 to i32
  store i32 %116, ptr %5, align 4
  store i32 1, ptr %14, align 4
  br label %117

117:                                              ; preds = %114, %113, %109, %76, %72, %52, %44, %28, %24
  call void @llvm.lifetime.end.p0(i64 4, ptr %13) #4
  call void @llvm.lifetime.end.p0(i64 8, ptr %12) #4
  call void @llvm.lifetime.end.p0(i64 8, ptr %11) #4
  call void @llvm.lifetime.end.p0(i64 8, ptr %10) #4
  %118 = load i32, ptr %5, align 4
  ret i32 %118
}

; Function Attrs: nounwind uwtable
define internal i32 @aes_wrap_cipher(ptr noundef %0, ptr noundef %1, ptr noundef %2, i64 noundef %3, ptr noundef %4, i64 noundef %5) #0 {
  %7 = alloca i32, align 4
  %8 = alloca ptr, align 8
  %9 = alloca ptr, align 8
  %10 = alloca ptr, align 8
  %11 = alloca i64, align 8
  %12 = alloca ptr, align 8
  %13 = alloca i64, align 8
  %14 = alloca ptr, align 8
  %15 = alloca i64, align 8
  %16 = alloca i32, align 4
  store ptr %0, ptr %8, align 8, !tbaa !3
  store ptr %1, ptr %9, align 8, !tbaa !7
  store ptr %2, ptr %10, align 8, !tbaa !13
  store i64 %3, ptr %11, align 8, !tbaa !9
  store ptr %4, ptr %12, align 8, !tbaa !7
  store i64 %5, ptr %13, align 8, !tbaa !9
  call void @llvm.lifetime.start.p0(i64 8, ptr %14) #4
  %17 = load ptr, ptr %8, align 8, !tbaa !3
  store ptr %17, ptr %14, align 8, !tbaa !15
  call void @llvm.lifetime.start.p0(i64 8, ptr %15) #4
  %18 = call i32 @ossl_prov_is_running()
  %19 = icmp ne i32 %18, 0
  br i1 %19, label %21, label %20

20:                                               ; preds = %6
  store i32 0, ptr %7, align 4
  store i32 1, ptr %16, align 4
  br label %44

21:                                               ; preds = %6
  %22 = load i64, ptr %13, align 8, !tbaa !9
  %23 = icmp eq i64 %22, 0
  br i1 %23, label %24, label %26

24:                                               ; preds = %21
  %25 = load ptr, ptr %10, align 8, !tbaa !13
  store i64 0, ptr %25, align 8, !tbaa !9
  store i32 1, ptr %7, align 4
  store i32 1, ptr %16, align 4
  br label %44

26:                                               ; preds = %21
  %27 = load i64, ptr %11, align 8, !tbaa !9
  %28 = load i64, ptr %13, align 8, !tbaa !9
  %29 = icmp ult i64 %27, %28
  br i1 %29, label %30, label %31

30:                                               ; preds = %26
  call void @ERR_new()
  call void @ERR_set_debug(ptr noundef @.str, i32 noundef 251, ptr noundef @__func__.aes_wrap_cipher)
  call void (i32, i32, ptr, ...) @ERR_set_error(i32 noundef 57, i32 noundef 106, ptr noundef null)
  store i32 0, ptr %7, align 4
  store i32 1, ptr %16, align 4
  br label %44

31:                                               ; preds = %26
  %32 = load ptr, ptr %14, align 8, !tbaa !15
  %33 = load ptr, ptr %9, align 8, !tbaa !7
  %34 = load ptr, ptr %12, align 8, !tbaa !7
  %35 = load i64, ptr %13, align 8, !tbaa !9
  %36 = call i32 @aes_wrap_cipher_internal(ptr noundef %32, ptr noundef %33, ptr noundef %34, i64 noundef %35)
  %37 = sext i32 %36 to i64
  store i64 %37, ptr %15, align 8, !tbaa !9
  %38 = load i64, ptr %15, align 8, !tbaa !9
  %39 = icmp ule i64 %38, 0
  br i1 %39, label %40, label %41

40:                                               ; preds = %31
  store i32 0, ptr %7, align 4
  store i32 1, ptr %16, align 4
  br label %44

41:                                               ; preds = %31
  %42 = load i64, ptr %15, align 8, !tbaa !9
  %43 = load ptr, ptr %10, align 8, !tbaa !13
  store i64 %42, ptr %43, align 8, !tbaa !9
  store i32 1, ptr %7, align 4
  store i32 1, ptr %16, align 4
  br label %44

44:                                               ; preds = %41, %40, %30, %24, %20
  call void @llvm.lifetime.end.p0(i64 8, ptr %15) #4
  call void @llvm.lifetime.end.p0(i64 8, ptr %14) #4
  %45 = load i32, ptr %7, align 4
  ret i32 %45
}